Microchip MPLAB XC8 Compiler V2.40

Linker command line:

-W-3 --edf=/opt/microchip/xc8/v2.40/pic/dat/20220703182018_en.msgs -cn \
  -h+dist/default/production/Proyecto1.X.production.sym \
  --cmf=dist/default/production/Proyecto1.X.production.cmf -z -Q16F886 \
  -o/tmp/xcXAbcoAk --defsym=__MPLAB_BUILD=1 --fixupoverflow=error \
  -Mdist/default/production/Proyecto1.X.production.map \
  --md=/tmp/xcXEpKiGo.dat -E1 -ver=XC8 Compiler --acfsm=1493 \
  -ACODE=00h-07FFhx4 -ASTRCODE=00h-01FFFh -ASTRING=00h-0FFhx32 \
  -ACONST=00h-0FFhx32 -AENTRY=00h-0FFhx32 -ACOMMON=070h-07Fh \
  -ABANK0=020h-06Fh -ABANK1=0A0h-0EFh -ABANK2=0110h-016Fh \
  -ABANK3=0190h-01EFh -ARAM=020h-06Fh,0A0h-0EFh,0110h-016Fh,0190h-01EFh \
  -AABS1=020h-07Fh,0A0h-0EFh,0110h-016Fh,0190h-01EFh -ASFR0=00h-01Fh \
  -ASFR1=080h-09Fh -ASFR2=0100h-010Fh -ASFR3=0180h-018Fh \
  -ACONFIG=02007h-02008h -DCONFIG=2 -AIDLOC=02000h-02003h -DIDLOC=2 \
  -AEEDATA=00h-0FFh/02100h -peeprom_data=EEDATA -DEEDATA=2 -DCODE=2 \
  -DSTRCODE=2 -DSTRING=2 -DCONST=2 -DENTRY=2 \
  -preset_vec=00h,intentry=04h,init,end_init -ppowerup=CODE -pcinit=CODE \
  -pfunctab=ENTRY -k /tmp/xcXCObgMK.o \
  dist/default/production/Proyecto1.X.production.o 

Object code version is 3.11

Machine type is 16F886



                Name                               Link     Load   Length Selector   Space Scale
/tmp/xcXCObgMK.o
                end_init                             12       12        3        8       0
                reset_vec                             0        0        3        0       0
                config                             2007     2007        2        0       4
                idloc                              2000     2000        4        0       5
dist/default/production/Proyecto1.X.production.o
                cinit                                15       15       35        8       0
                intentry                              4        4        E        8       0
                config                             2007     2007        2        0       4
                idloc                              2000     2000        4        0       5
                text44                              D57      D57       34     1AAE       0
                text43                              68D      68D       64      7C0       0
                text42                              C94      C94       16     1928       0
                text41                              627      627       66      7C0       0
                text40                              78F      78F       4E      7C0       0
                text39                              55A      55A       67      7C0       0
                text38                              C6A      C6A       15     18D4       0
                text37                              DF6      DF6       38     1BEC       0
                text36                               4A       4A      1D8        8       0
                text35                              BD7      BD7        D     17AE       0
                text34                              BE4      BE4        D     17C8       0
                text33                              B9F      B9F        8     173E       0
                text32                              D32      D32       25     1A64       0
                text31                              BAF      BAF        9     175E       0
                text30                              BF1      BF1        E     17E2       0
                text29                              6F1      6F1       50      7C0       0
                text28                              FB5      FB5       4B     1F6A       0
                text27                              EA4      EA4       3F     1D48       0
                text26                              EE3      EE3       43     1DC6       0
                text25                              BB8      BB8        9     1770       0
                text24                              CF2      CF2       1C     19E4       0
                text23                              D0E      D0E       24     1A1C       0
                text22                              F26      F26       46     1E4C       0
                text21                              E68      E68       3C     1CD0       0
                text20                              C21      C21       12     1842       0
                text19                              222      222      11B        8       0
                text18                              DC0      DC0       36     1B80       0
                text17                              5C1      5C1       66      7C0       0
                text16                              47B      47B       76      7C0       0
                text15                              741      741       4E      7C0       0
                text14                              4F1      4F1       69      7C0       0
                text13                              CAA      CAA       17     1954       0
                text12                              E2E      E2E       3A     1C5C       0
                text11                              F6C      F6C       49     1ED8       0
                text10                              CD9      CD9       19     19B2       0
                text9                               BFF      BFF       11     17FE       0
                text8                               CC1      CC1       18     1982       0
                text7                               7F9      7F9        4      7C0       0
                text6                               BCB      BCB        C     1796       0
                text5                               C10      C10       11     1820       0
                text4                               C33      C33       12     1866       0
                text3                               BC1      BC1        A     1782       0
                text2                               7DD      7DD       1C      7C0       0
                text1                               D8B      D8B       35     1B16       0
                maintext                            3E0      3E0       9B      7C0       0
                cstackBANK0                          20       20       28       20       1
                cstackCOMMON                         70       70        D       70       1
                cstackBANK1                          CC       CC        7       A0       1
                clrtext                             BA7      BA7        8     174E       0
                inittext                            C57      C57       13     18AE       0
                dataBANK1                            BA       BA       12       A0       1
                bssBANK1                             A0       A0       1A       A0       1
                dataBANK0                            48       48       15       20       1
                bssBANK0                             5D       5D        B       20       1
                dataCOMMON                           7D       7D        1       70       1
                strings                             33D      33D       A3      67A       0
                idataBANK1                          C45      C45       12     188A       0
                idataBANK0                          C7F      C7F       15     18FE       0
                idataCOMMON                         7FD      7FD        1      7C0       0

TOTAL           Name                               Link     Load   Length     Space
        CLASS   CODE           
                end_init                             12       12        3         0
                cinit                                15       15       35         0
                intentry                              4        4        E         0
                reset_vec                             0        0        3         0
                text44                              D57      D57       34         0
                text43                              68D      68D       64         0
                text42                              C94      C94       16         0
                text41                              627      627       66         0
                text40                              78F      78F       4E         0
                text39                              55A      55A       67         0
                text38                              C6A      C6A       15         0
                text37                              DF6      DF6       38         0
                text36                               4A       4A      1D8         0
                text35                              BD7      BD7        D         0
                text34                              BE4      BE4        D         0
                text33                              B9F      B9F        8         0
                text32                              D32      D32       25         0
                text31                              BAF      BAF        9         0
                text30                              BF1      BF1        E         0
                text29                              6F1      6F1       50         0
                text28                              FB5      FB5       4B         0
                text27                              EA4      EA4       3F         0
                text26                              EE3      EE3       43         0
                text25                              BB8      BB8        9         0
                text24                              CF2      CF2       1C         0
                text23                              D0E      D0E       24         0
                text22                              F26      F26       46         0
                text21                              E68      E68       3C         0
                text20                              C21      C21       12         0
                text19                              222      222      11B         0
                text18                              DC0      DC0       36         0
                text17                              5C1      5C1       66         0
                text16                              47B      47B       76         0
                text15                              741      741       4E         0
                text14                              4F1      4F1       69         0
                text13                              CAA      CAA       17         0
                text12                              E2E      E2E       3A         0
                text11                              F6C      F6C       49         0
                text10                              CD9      CD9       19         0
                text9                               BFF      BFF       11         0
                text8                               CC1      CC1       18         0
                text7                               7F9      7F9        4         0
                text6                               BCB      BCB        C         0
                text5                               C10      C10       11         0
                text4                               C33      C33       12         0
                text3                               BC1      BC1        A         0
                text2                               7DD      7DD       1C         0
                text1                               D8B      D8B       35         0
                maintext                            3E0      3E0       9B         0
                clrtext                             BA7      BA7        8         0
                inittext                            C57      C57       13         0
                idataBANK1                          C45      C45       12         0
                idataBANK0                          C7F      C7F       15         0
                idataCOMMON                         7FD      7FD        1         0

        CLASS   STRCODE        

        CLASS   STRING         
                strings                             33D      33D       A3         0

        CLASS   CONST          

        CLASS   ENTRY          

        CLASS   COMMON         
                cstackCOMMON                         70       70        D         1
                dataCOMMON                           7D       7D        1         1

        CLASS   BANK0          
                cstackBANK0                          20       20       28         1
                dataBANK0                            48       48       15         1
                bssBANK0                             5D       5D        B         1

        CLASS   BANK1          
                cstackBANK1                          CC       CC        7         1
                dataBANK1                            BA       BA       12         1
                bssBANK1                             A0       A0       1A         1

        CLASS   BANK2          

        CLASS   BANK3          

        CLASS   RAM            

        CLASS   ABS1           
                abs_s1                               7E       7E        2         1

        CLASS   SFR0           

        CLASS   SFR1           

        CLASS   SFR2           

        CLASS   SFR3           

        CLASS   CONFIG         
                config                             2007     2007        2         4

        CLASS   IDLOC          
                idloc                              2000     2000        4         5

        CLASS   EEDATA         

        CLASS   STACK          



SEGMENTS        Name                           Load    Length   Top    Selector   Space  Class     Delta

                text13                         000CAA  000017  000CC1      1954       0  CODE        2
                text8                          000CC1  000018  000CD9      1982       0  CODE        2
                text10                         000CD9  000019  000CF2      19B2       0  CODE        2
                text42                         000C94  000016  000CAA      1928       0  CODE        2
                inittext                       000C57  000013  000C6A      18AE       0  CODE        2
                text38                         000C6A  000015  000C7F      18D4       0  CODE        2
                idataBANK0                     000C7F  000015  000C94      18FE       0  CODE        2
                text1                          000D8B  000035  000DC0      1B16       0  CODE        2
                text18                         000DC0  000036  000DF6      1B80       0  CODE        2
                text37                         000DF6  000038  000E2E      1BEC       0  CODE        2
                text44                         000D57  000034  000D8B      1AAE       0  CODE        2
                text24                         000CF2  00001C  000D0E      19E4       0  CODE        2
                text23                         000D0E  000024  000D32      1A1C       0  CODE        2
                text32                         000D32  000025  000D57      1A64       0  CODE        2
                text3                          000BC1  00000A  000BCB      1782       0  CODE        2
                text6                          000BCB  00000C  000BD7      1796       0  CODE        2
                text35                         000BD7  00000D  000BE4      17AE       0  CODE        2
                text25                         000BB8  000009  000BC1      1770       0  CODE        2
                text33                         000B9F  000008  000BA7      173E       0  CODE        2
                clrtext                        000BA7  000008  000BAF      174E       0  CODE        2
                text31                         000BAF  000009  000BB8      175E       0  CODE        2
                text20                         000C21  000012  000C33      1842       0  CODE        2
                text4                          000C33  000012  000C45      1866       0  CODE        2
                idataBANK1                     000C45  000012  000C57      188A       0  CODE        2
                text5                          000C10  000011  000C21      1820       0  CODE        2
                text34                         000BE4  00000D  000BF1      17C8       0  CODE        2
                text30                         000BF1  00000E  000BFF      17E2       0  CODE        2
                text9                          000BFF  000011  000C10      17FE       0  CODE        2
                cstackBANK0                    000020  000048  000068        20       1  BANK0       1
                reset_vec                      000000  000003  000003         0       0  CODE        2
                bssBANK1                       0000A0  000033  0000D3        A0       1  BANK1       1
                intentry                       000004  000339  00033D         8       0  CODE        2
                cstackCOMMON                   000070  00000E  00007E        70       1  COMMON      1
                text22                         000F26  000046  000F6C      1E4C       0  CODE        2
                text11                         000F6C  000049  000FB5      1ED8       0  CODE        2
                text28                         000FB5  00004B  001000      1F6A       0  CODE        2
                text26                         000EE3  000043  000F26      1DC6       0  CODE        2
                text12                         000E2E  00003A  000E68      1C5C       0  CODE        2
                text21                         000E68  00003C  000EA4      1CD0       0  CODE        2
                text27                         000EA4  00003F  000EE3      1D48       0  CODE        2
                maintext                       0003E0  00041E  0007FE       7C0       0  CODE        2
                strings                        00033D  0000A3  0003E0       67A       0  STRING      2


UNUSED ADDRESS RANGES

        Name                Unused          Largest block    Delta
        BANK0            0068-006F              8           1
        BANK1            00D3-00EF             1D           1
        BANK2            0110-016F             60           1
        BANK3            0190-01EF             60           1
        CODE             0003-0003              1           2
                         07FE-0B9E              2
                         1000-1FFF            800
        CONST            0003-0003              1           2
                         07FE-0B9E            100
                         1000-1FFF            100
        EEDATA           2100-21FF            100           2
        ENTRY            0003-0003              1           2
                         07FE-0B9E            100
                         1000-1FFF            100
        RAM              0068-006F              8           1
                         00D3-00EF             1D
                         0110-016F             60
                         0190-01EF             60
        SFR0             0000-001F             20           1
        SFR1             0080-009F             20           1
        SFR2             0100-010F             10           1
        SFR3             0180-018F             10           1
        STRCODE          0003-0003              1           2
                         07FE-0B9E            3A1
                         1000-1FFF           1000
        STRING           0003-0003              1           2
                         07FE-0B9E            100
                         1000-1FFF            100

                                  Symbol Table

?___awdiv                           cstackBANK0  0028
?___lwdiv                           cstackBANK0  0028
?___lwmod                           cstackBANK0  0030
?_getCO2                            cstackBANK0  0028
?_getLumen                          cstackBANK0  0028
?_getnoPrimerArranque               cstackBANK0  0029
?_printf                            cstackBANK0  0036
?i1___awdiv                         cstackCOMMON 0070
_ADCON0bits                         (abs)        001F
_ADCON1bits                         (abs)        009F
_ADRESH                             (abs)        001E
_ADRESL                             (abs)        009E
_ANSEL                              (abs)        0188
_ANSELbits                          (abs)        0188
_BAUDCTLbits                        (abs)        0187
_CCP1CONbits                        (abs)        0017
_CCPR1L                             (abs)        0015
_EEADR                              (abs)        010D
_EEADRH                             (abs)        010F
_EECON1bits                         (abs)        018C
_EECON2                             (abs)        018D
_EEDAT                              (abs)        010C
_EEDATH                             (abs)        010E
_INTCONbits                         (abs)        000B
_OPTION_REGbits                     (abs)        0081
_OSCCON                             (abs)        008F
_PIE1bits                           (abs)        008C
_PIE2bits                           (abs)        008D
_PIR1bits                           (abs)        000C
_PIR2bits                           (abs)        000D
_PORTAbits                          (abs)        0005
_PORTCbits                          (abs)        0007
_PR2                                (abs)        0092
_RCREG                              (abs)        001A
_RCSTAbits                          (abs)        0018
_SPBRG                              (abs)        0099
_SPBRGH                             (abs)        009A
_SSPADD                             (abs)        0093
_SSPBUF                             (abs)        0013
_SSPCON2bits                        (abs)        0091
_SSPCONbits                         (abs)        0014
_T1CONbits                          (abs)        0010
_T2CONbits                          (abs)        0012
_TMR0                               (abs)        0001
_TMR1H                              (abs)        000F
_TMR1L                              (abs)        000E
_TRAT_INT                           text36       004A
_TRISA                              (abs)        0085
_TRISB                              (abs)        0086
_TRISC                              (abs)        0087
_TRISCbits                          (abs)        0087
_TXIF                               (abs)        0064
_TXREG                              (abs)        0019
_TXSTAbits                          (abs)        0098
__Habs1                             abs1         0000
__Hbank0                            bank0        0000
__Hbank1                            bank1        0000
__Hbank2                            bank2        0000
__Hbank3                            bank3        0000
__HbssBANK0                         bssBANK0     0000
__HbssBANK1                         bssBANK1     0000
__Hcinit                            cinit        004A
__Hclrtext                          clrtext      0000
__Hcode                             code         0000
__Hcommon                           common       0000
__Hconfig                           config       2009
__HcstackBANK0                      cstackBANK0  0000
__HcstackBANK1                      cstackBANK1  0000
__HcstackCOMMON                     cstackCOMMON 0000
__HdataBANK0                        dataBANK0    0000
__HdataBANK1                        dataBANK1    0000
__HdataCOMMON                       dataCOMMON   0000
__Heeprom_data                      eeprom_data  0000
__Hend_init                         end_init     0015
__Hfunctab                          functab      0000
__HidataBANK0                       idataBANK0   0000
__HidataBANK1                       idataBANK1   0000
__HidataCOMMON                      idataCOMMON  0000
__Hidloc                            idloc        2004
__Hinit                             init         0012
__Hinittext                         inittext     0000
__Hintentry                         intentry     0012
__Hmaintext                         maintext     0000
__Hpowerup                          powerup      0000
__Hram                              ram          0000
__Hreset_vec                        reset_vec    0003
__Hsfr0                             sfr0         0000
__Hsfr1                             sfr1         0000
__Hsfr2                             sfr2         0000
__Hsfr3                             sfr3         0000
__Hspace_0                          (abs)        1000
__Hspace_1                          (abs)        00D3
__Hspace_2                          (abs)        0000
__Hspace_3                          (abs)        0000
__Hspace_4                          (abs)        4010
__Hstack                            stack        0000
__Hstrings                          strings      0000
__Htext                             text         0000
__Labs1                             abs1         0000
__Lbank0                            bank0        0000
__Lbank1                            bank1        0000
__Lbank2                            bank2        0000
__Lbank3                            bank3        0000
__LbssBANK0                         bssBANK0     0000
__LbssBANK1                         bssBANK1     0000
__Lcinit                            cinit        0015
__Lclrtext                          clrtext      0000
__Lcode                             code         0000
__Lcommon                           common       0000
__Lconfig                           config       0000
__LcstackBANK0                      cstackBANK0  0000
__LcstackBANK1                      cstackBANK1  0000
__LcstackCOMMON                     cstackCOMMON 0000
__LdataBANK0                        dataBANK0    0000
__LdataBANK1                        dataBANK1    0000
__LdataCOMMON                       dataCOMMON   0000
__Leeprom_data                      eeprom_data  0000
__Lend_init                         end_init     0012
__Lfunctab                          functab      0000
__LidataBANK0                       idataBANK0   0000
__LidataBANK1                       idataBANK1   0000
__LidataCOMMON                      idataCOMMON  0000
__Lidloc                            idloc        0000
__Linit                             init         0012
__Linittext                         inittext     0000
__Lintentry                         intentry     0004
__Lmaintext                         maintext     0000
__Lpowerup                          powerup      0000
__Lram                              ram          0000
__Lreset_vec                        reset_vec    0000
__Lsfr0                             sfr0         0000
__Lsfr1                             sfr1         0000
__Lsfr2                             sfr2         0000
__Lsfr3                             sfr3         0000
__Lspace_0                          (abs)        0000
__Lspace_1                          (abs)        0000
__Lspace_2                          (abs)        0000
__Lspace_3                          (abs)        0000
__Lspace_4                          (abs)        0000
__Lstack                            stack        0000
__Lstrings                          strings      0000
__Ltext                             text         0000
__S0                                (abs)        1000
__S1                                (abs)        00D3
__S3                                (abs)        0000
___awdiv                            text14       04F1
___awdiv@counter                    cstackBANK0  002D
___awdiv@dividend                   cstackBANK0  002A
___awdiv@divisor                    cstackBANK0  0028
___awdiv@quotient                   cstackBANK0  002F
___awdiv@sign                       cstackBANK0  002E
___bmul                             text13       0CAA
___bmul@multiplicand                cstackBANK0  0028
___bmul@multiplier                  cstackBANK0  002B
___bmul@product                     cstackBANK0  002A
___int_sp                           stack        0000
___latbits                          (abs)        0002
___lwdiv                            text22       0F26
___lwdiv@counter                    cstackBANK0  002D
___lwdiv@dividend                   cstackBANK0  002A
___lwdiv@divisor                    cstackBANK0  0028
___lwdiv@quotient                   cstackBANK0  002E
___lwmod                            text21       0E68
___lwmod@counter                    cstackBANK0  0035
___lwmod@dividend                   cstackBANK0  0032
___lwmod@divisor                    cstackBANK0  0030
___sp                               stack        0000
___stackhi                          (abs)        0000
___stacklo                          (abs)        0000
__end_of_TRAT_INT                   text36       0222
__end_of___awdiv                    text14       055A
__end_of___bmul                     text13       0CC1
__end_of___lwdiv                    text22       0F6C
__end_of___lwmod                    text21       0EA4
__end_of__initialization            cinit        0046
__end_of__stringtab                 strings      0343
__end_of_analisisResto              text27       0EE3
__end_of_analisisRuido              text26       0F26
__end_of_cosasSPI                   text17       0627
__end_of_dpowers                    strings      034D
__end_of_escribirMemoria            text16       04F1
__end_of_getCO2                     text35       0BE4
__end_of_getLumen                   text34       0BF1
__end_of_getnoPrimerArranque        text23       0D32
__end_of_i2c_read                   text32       0D57
__end_of_i2c_rstart                 text31       0BB8
__end_of_i2c_stop                   text25       0BC1
__end_of_i2c_write                  text30       0BFF
__end_of_initActuadoresSegunMemoria text11       0FB5
__end_of_initYo                     text1        0DC0
__end_of_init_ADC                   text10       0CF2
__end_of_init_CCP1_PWM              text9        0C10
__end_of_init_I2C                   text8        0CD9
__end_of_init_SPI                   text7        07FD
__end_of_init_TMR0                  text6        0BD7
__end_of_init_TMR1                  text5        0C21
__end_of_init_TMR2                  text4        0C45
__end_of_init_memoria               text3        0BCB
__end_of_init_uart                  text2        07F9
__end_of_leerMemoria                text24       0D0E
__end_of_main                       maintext     047B
__end_of_printf                     text19       033D
__end_of_putch                      text20       0C33
__end_of_setCO2                     text29       0741
__end_of_setLED                     text15       078F
__end_of_setLumen                   text28       1000
__end_of_setPWM                     text12       0E68
__end_of_spi_write_read             text18       0DF6
__end_of_wait_MSSP                  text33       0BA7
__end_ofi1___awdiv                  text39       05C1
__end_ofi1___bmul                   text38       0C7F
__end_ofi1_cosasSPI                 text43       06F1
__end_ofi1_escribirMemoria          text41       068D
__end_ofi1_leerMemoria              text42       0CAA
__end_ofi1_setLED                   text40       07DD
__end_ofi1_setPWM                   text37       0E2E
__end_ofi1_spi_write_read           text44       0D8B
__initialization                    cinit        0015
__pbssBANK0                         bssBANK0     005D
__pbssBANK1                         bssBANK1     00A0
__pcstackBANK0                      cstackBANK0  0020
__pcstackBANK1                      cstackBANK1  00CC
__pcstackCOMMON                     cstackCOMMON 0070
__pdataBANK0                        dataBANK0    0048
__pdataBANK1                        dataBANK1    00BA
__pdataCOMMON                       dataCOMMON   007D
__pidataBANK0                       idataBANK0   0C7F
__pidataBANK1                       idataBANK1   0C45
__pidataCOMMON                      idataCOMMON  07FD
__pintentry                         intentry     0004
__pmaintext                         maintext     03E0
__pstrings                          strings      033D
__ptext1                            text1        0D8B
__ptext10                           text10       0CD9
__ptext11                           text11       0F6C
__ptext12                           text12       0E2E
__ptext13                           text13       0CAA
__ptext14                           text14       04F1
__ptext15                           text15       0741
__ptext16                           text16       047B
__ptext17                           text17       05C1
__ptext18                           text18       0DC0
__ptext19                           text19       0222
__ptext2                            text2        07DD
__ptext20                           text20       0C21
__ptext21                           text21       0E68
__ptext22                           text22       0F26
__ptext23                           text23       0D0E
__ptext24                           text24       0CF2
__ptext25                           text25       0BB8
__ptext26                           text26       0EE3
__ptext27                           text27       0EA4
__ptext28                           text28       0FB5
__ptext29                           text29       06F1
__ptext3                            text3        0BC1
__ptext30                           text30       0BF1
__ptext31                           text31       0BAF
__ptext32                           text32       0D32
__ptext33                           text33       0B9F
__ptext34                           text34       0BE4
__ptext35                           text35       0BD7
__ptext36                           text36       004A
__ptext37                           text37       0DF6
__ptext38                           text38       0C6A
__ptext39                           text39       055A
__ptext4                            text4        0C33
__ptext40                           text40       078F
__ptext41                           text41       0627
__ptext42                           text42       0C94
__ptext43                           text43       068D
__ptext44                           text44       0D57
__ptext5                            text5        0C10
__ptext6                            text6        0BCB
__ptext7                            text7        07F9
__ptext8                            text8        0CC1
__ptext9                            text9        0BFF
__stringbase                        strings      0342
__stringtab                         strings      033D
_actualizoLecturas                  bssBANK1     00AE
_anI                                dataBANK0    004E
_analisisResto                      text27       0EA4
_analisisRuido                      text26       0EE3
_continuoEscribiendo                bssBANK1     00B6
_copias                             bssBANK1     00AC
_copias1                            bssBANK0     005D
_copias5s                           bssBANK1     00AA
_cosasSPI                           text17       05C1
_deboContinuar                      dataBANK0    0050
_direccionInicial                   bssBANK0     0067
_direccionLED                       dataBANK0    0056
_direccionPWM                       dataBANK0    0057
_dpowers                            strings      0343
_eltimer1H                          dataCOMMON   007D
_eltimer1L                          dataBANK0    0058
_emitirMisSensores                  bssBANK1     00B2
_emitoSensores                      dataBANK1    00BA
_escribirMemoria                    text16       047B
_getCO2                             text35       0BD7
_getLumen                           text34       0BE4
_getnoPrimerArranque                text23       0D0E
_i2c_read                           text32       0D32
_i2c_rstart                         text31       0BAF
_i2c_stop                           text25       0BB8
_i2c_write                          text30       0BF1
_initActuadoresSegunMemoria         text11       0F6C
_initYo                             text1        0D8B
_init_ADC                           text10       0CD9
_init_CCP1_PWM                      text9        0BFF
_init_I2C                           text8        0CC1
_init_SPI                           text7        07F9
_init_TMR0                          text6        0BCB
_init_TMR1                          text5        0C10
_init_TMR2                          text4        0C33
_init_memoria                       text3        0BC1
_init_uart                          text2        07DD
_leerMemoria                        text24       0CF2
_leoADCHumedadTemp                  dataBANK0    004C
_los5msen15ms                       dataBANK0    0048
_los5msen1sT0                       dataBANK1    00C4
_main                               maintext     03E0
_miLED                              dataBANK0    0059
_numLedes                           dataBANK0    004A
_pPWM                               bssBANK0     0066
_porcentaje                         bssBANK0     0064
_porcentajeMax                      dataBANK0    0055
_printf                             text19       0222
_putch                              text20       0C21
_reciboLED                          bssBANK0     0061
_reciboPWM                          bssBANK1     00B4
_ruidoMasAlto                       bssBANK0     005F
_setCO2                             text29       06F1
_setLED                             text15       0741
_setLumen                           text28       0FB5
_setPWM                             text12       0E2E
_spi_write_read                     text18       0DC0
_valor                              bssBANK1     00A0
_valorI2C                           bssBANK1     00A6
_wait_MSSP                          text33       0B9F
analisisRuido@temp                  cstackBANK0  002A
btemp                               (abs)        007E
clear_ram0                          clrtext      0BA7
cosasSPI@azu                        cstackBANK0  002E
cosasSPI@i                          cstackBANK0  0030
cosasSPI@lumi                       cstackBANK0  002F
cosasSPI@verd                       cstackBANK0  002D
end_of_initialization               cinit        0046
escribirMemoria@confirmado          cstackBANK0  002A
escribirMemoria@contador            cstackBANK0  002D
escribirMemoria@dato                cstackBANK0  0029
escribirMemoria@direccion           cstackBANK0  002C
getnoPrimerArranque@aux             cstackBANK0  002C
getnoPrimerArranque@direccion       cstackBANK0  002B
i1___awdiv                          text39       055A
i1___awdiv@counter                  cstackCOMMON 0075
i1___awdiv@dividend                 cstackCOMMON 0072
i1___awdiv@divisor                  cstackCOMMON 0070
i1___awdiv@quotient                 cstackCOMMON 0077
i1___awdiv@sign                     cstackCOMMON 0076
i1___bmul                           text38       0C6A
i1___bmul@multiplicand              cstackCOMMON 0070
i1___bmul@multiplier                cstackCOMMON 0073
i1___bmul@product                   cstackCOMMON 0072
i1_cosasSPI                         text43       068D
i1_escribirMemoria                  text41       0627
i1_leerMemoria                      text42       0C94
i1_setLED                           text40       078F
i1_setPWM                           text37       0DF6
i1_spi_write_read                   text44       0D57
i1cosasSPI@azu                      cstackCOMMON 0076
i1cosasSPI@i                        cstackCOMMON 0078
i1cosasSPI@lumi                     cstackCOMMON 0077
i1cosasSPI@verd                     cstackCOMMON 0075
i1escribirMemoria@confirmado        cstackCOMMON 0072
i1escribirMemoria@contador          cstackCOMMON 0075
i1escribirMemoria@dato              cstackCOMMON 0071
i1escribirMemoria@direccion         cstackCOMMON 0074
i1leerMemoria@direccion             cstackCOMMON 0070
i1setLED@blue                       cstackCOMMON 007B
i1setLED@direccion                  cstackBANK0  0020
i1setLED@green                      cstackCOMMON 007A
i1setLED@luminosidad                cstackCOMMON 007C
i1setLED@red                        cstackBANK0  0021
i1setPWM@direccion                  cstackCOMMON 007B
i1setPWM@porcent                    cstackCOMMON 007C
i1spi_write_read@answer             cstackCOMMON 0073
i1spi_write_read@one_byte           cstackCOMMON 0072
i1spi_write_read@x                  cstackCOMMON 0074
i2c_read@I2C_data                   cstackBANK0  0029
i2c_read@master_ack                 cstackBANK0  0028
i2c_write@I2C_data                  cstackBANK0  0028
init_fetch0                         inittext     0C57
init_ram0                           inittext     0C5B
interrupt_function                  intentry     0004
intlevel0                           functab      0000
intlevel1                           functab      0000
intlevel2                           functab      0000
intlevel3                           functab      0000
intlevel4                           functab      0000
intlevel5                           functab      0000
leerMemoria@direccion               cstackBANK0  0028
main@ruidoAux                       cstackBANK0  0047
printf@ap                           cstackBANK1  00CE
printf@c                            cstackBANK1  00D2
printf@f                            cstackBANK1  00CF
printf@flag                         cstackBANK1  00CC
printf@prec                         cstackBANK1  00CD
printf@val                          cstackBANK1  00D0
putch@c                             cstackBANK0  0028
reset_vec                           reset_vec    0000
saved_w                             (abs)        007E
setLED@blue                         cstackBANK0  0033
setLED@direccion                    cstackBANK0  0035
setLED@green                        cstackBANK0  0032
setLED@luminosidad                  cstackBANK0  0034
setLED@red                          cstackBANK0  0036
setPWM@direccion                    cstackBANK0  0033
setPWM@porcent                      cstackBANK0  0034
spi_write_read@answer               cstackBANK0  002B
spi_write_read@one_byte             cstackBANK0  002A
spi_write_read@x                    cstackBANK0  002C
start                               init         0012
start_initialization                cinit        0015
wtemp0                              (abs)        007E


MODULE INFORMATION

Module		Function		Class		Link	Load	Size
spi-master-v1.c
		_spi_write_read		CODE           	0DC0	0000	54

spi-master-v1.c estimated size: 54

/opt/microchip/xc8/v2.40/pic/sources/c90/common/lwdiv.c
		___lwdiv       		CODE           	0F26	0000	70

/opt/microchip/xc8/v2.40/pic/sources/c90/common/lwdiv.c estimated size: 70

/opt/microchip/xc8/v2.40/pic/sources/c90/common/Umul8.c
		___bmul        		CODE           	0CAA	0000	23

/opt/microchip/xc8/v2.40/pic/sources/c90/common/Umul8.c estimated size: 23

/opt/microchip/xc8/v2.40/pic/sources/c90/common/awdiv.c
		___awdiv       		CODE           	04F1	0000	105

/opt/microchip/xc8/v2.40/pic/sources/c90/common/awdiv.c estimated size: 105

shared
		__stringtab    		STRING         	033D	0000	6
		_dpowers       		STRING         	0343	0000	10
		i1___awdiv     		CODE           	055A	0000	103
		__initialization		CODE           	0015	0000	49
		i1_escribirMemoria		CODE           	0627	0000	102
		i1_setPWM      		CODE           	0DF6	0000	56
		i1_leerMemoria 		CODE           	0C94	0000	22
		i1_cosasSPI    		CODE           	068D	0000	100
		i1___bmul      		CODE           	0C6A	0000	21
		i1_setLED      		CODE           	078F	0000	78
		i1_spi_write_read		CODE           	0D57	0000	52

shared estimated size: 599

/opt/microchip/xc8/v2.40/pic/sources/c90/common/doprnt.c
		_printf        		CODE           	0222	0000	283

/opt/microchip/xc8/v2.40/pic/sources/c90/common/doprnt.c estimated size: 283

/opt/microchip/xc8/v2.40/pic/sources/c90/common/lwmod.c
		___lwmod       		CODE           	0E68	0000	60

/opt/microchip/xc8/v2.40/pic/sources/c90/common/lwmod.c estimated size: 60

i2c-v2.c
		_i2c_write     		CODE           	0BF1	0000	14
		_i2c_rstart    		CODE           	0BAF	0000	9
		_i2c_stop      		CODE           	0BB8	0000	9
		_i2c_read      		CODE           	0D32	0000	37
		_wait_MSSP     		CODE           	0B9F	0000	8

i2c-v2.c estimated size: 77

main.c
		_setCO2        		CODE           	06F1	0000	80
		_getnoPrimerArranque		CODE           	0D0E	0000	36
		_setLumen      		CODE           	0FB5	0000	75
		_cosasSPI      		CODE           	05C1	0000	102
		_putch         		CODE           	0C21	0000	18
		_escribirMemoria		CODE           	047B	0000	118
		_setLED        		CODE           	0741	0000	78
		_init_TMR0     		CODE           	0BCB	0000	12
		_init_TMR1     		CODE           	0C10	0000	17
		_init_TMR2     		CODE           	0C33	0000	18
		_main          		CODE           	03E0	0000	155
		_initActuadoresSegunMemoria		CODE           	0F6C	0000	73
		_init_uart     		CODE           	07DD	0000	28
		_init_memoria  		CODE           	0BC1	0000	10
		_init_ADC      		CODE           	0CD9	0000	25
		_initYo        		CODE           	0D8B	0000	53
		_leerMemoria   		CODE           	0CF2	0000	28
		_init_CCP1_PWM 		CODE           	0BFF	0000	17
		_setPWM        		CODE           	0E2E	0000	58
		_TRAT_INT      		CODE           	004A	0000	472
		_getCO2        		CODE           	0BD7	0000	13
		_init_I2C      		CODE           	0CC1	0000	24
		_analisisRuido 		CODE           	0EE3	0000	67
		_analisisResto 		CODE           	0EA4	0000	63
		_getLumen      		CODE           	0BE4	0000	13
		_init_SPI      		CODE           	07F9	0000	4

main.c estimated size: 1657

